; Function Attrs: mustprogress uwtable
define void @_ZN10open_spiel18ObserverRegistererC2ERKNSt7__cxx1112basic_stringIcSt11char_traitsIcESaIcEEES8_St8functionIFSt10shared_ptrINS_8ObserverEERKNS_4GameEN4absl7debian28optionalINS_18IIGObservationTypeEEERKSt3mapIS6_NS_13GameParameterESt4lessIS6_ESaISt4pairIS7_SM_EEEEE(ptr nonnull readnone align 1 captures(none) %0, ptr noundef nonnull align 8 dereferenceable(32) %1, ptr noundef nonnull align 8 dereferenceable(32) %2, ptr noundef %3) unnamed_addr #3 align 2 personality ptr @__gxx_personality_v0 {
  %5 = alloca %"class.std::function", align 8
  %6 = getelementptr inbounds nuw i8, ptr %5, i64 16
  %7 = getelementptr inbounds nuw i8, ptr %5, i64 24
  %8 = getelementptr inbounds nuw i8, ptr %3, i64 16
  call void @llvm.memset.p0.i64(ptr noundef nonnull align 8 dereferenceable(32) %5, i8 0, i64 32, i1 false)
  %9 = load ptr, ptr %8, align 8
  %.not.i.i.not.i = icmp eq ptr %9, null
  br i1 %.not.i.i.not.i, label %_ZNSt8functionIFSt10shared_ptrIN10open_spiel8ObserverEERKNS1_4GameEN4absl7debian28optionalINS1_18IIGObservationTypeEEERKSt3mapINSt7__cxx1112basic_stringIcSt11char_traitsIcESaIcEEENS1_13GameParameterESt4lessISI_ESaISt4pairIKSI_SJ_EEEEEC2ERKSU_.exit, label %10

10:                                               ; preds = %4
  %11 = invoke noundef zeroext i1 %9(ptr noundef nonnull align 8 dereferenceable(32) %5, ptr noundef nonnull align 8 dereferenceable(32) %3, i32 noundef 2)
          to label %12 unwind label %16

12:                                               ; preds = %10
  %13 = getelementptr inbounds nuw i8, ptr %3, i64 24
  %14 = load ptr, ptr %13, align 8
  store ptr %14, ptr %7, align 8
  %15 = load ptr, ptr %8, align 8
  store ptr %15, ptr %6, align 8
  br label %_ZNSt8functionIFSt10shared_ptrIN10open_spiel8ObserverEERKNS1_4GameEN4absl7debian28optionalINS1_18IIGObservationTypeEEERKSt3mapINSt7__cxx1112basic_stringIcSt11char_traitsIcESaIcEEENS1_13GameParameterESt4lessISI_ESaISt4pairIKSI_SJ_EEEEEC2ERKSU_.exit

16:                                               ; preds = %10
  %17 = landingpad { ptr, i32 }
          cleanup
  %18 = load ptr, ptr %6, align 8
  %.not.i.i = icmp eq ptr %18, null
  br i1 %.not.i.i, label %common.resume, label %19

19:                                               ; preds = %16
  %20 = invoke noundef zeroext i1 %18(ptr noundef nonnull align 8 dereferenceable(32) %5, ptr noundef nonnull align 8 dereferenceable(32) %5, i32 noundef 3)
          to label %common.resume unwind label %21

21:                                               ; preds = %19
  %22 = landingpad { ptr, i32 }
          catch ptr null
  %23 = extractvalue { ptr, i32 } %22, 0
  call void @__clang_call_terminate(ptr %23) #27
  unreachable

common.resume:                                    ; preds = %34, %31, %16, %19
  %common.resume.op = phi { ptr, i32 } [ %17, %19 ], [ %17, %16 ], [ %32, %31 ], [ %32, %34 ]
  resume { ptr, i32 } %common.resume.op

_ZNSt8functionIFSt10shared_ptrIN10open_spiel8ObserverEERKNS1_4GameEN4absl7debian28optionalINS1_18IIGObservationTypeEEERKSt3mapINSt7__cxx1112basic_stringIcSt11char_traitsIcESaIcEEENS1_13GameParameterESt4lessISI_ESaISt4pairIKSI_SJ_EEEEEC2ERKSU_.exit: ; preds = %4, %12
  invoke void @_ZN10open_spiel18ObserverRegisterer16RegisterObserverERKNSt7__cxx1112basic_stringIcSt11char_traitsIcESaIcEEES8_St8functionIFSt10shared_ptrINS_8ObserverEERKNS_4GameEN4absl7debian28optionalINS_18IIGObservationTypeEEERKSt3mapIS6_NS_13GameParameterESt4lessIS6_ESaISt4pairIS7_SM_EEEEE(ptr noundef nonnull align 8 dereferenceable(32) %1, ptr noundef nonnull align 8 dereferenceable(32) %2, ptr noundef nonnull %5)
          to label %24 unwind label %31

24:                                               ; preds = %_ZNSt8functionIFSt10shared_ptrIN10open_spiel8ObserverEERKNS1_4GameEN4absl7debian28optionalINS1_18IIGObservationTypeEEERKSt3mapINSt7__cxx1112basic_stringIcSt11char_traitsIcESaIcEEENS1_13GameParameterESt4lessISI_ESaISt4pairIKSI_SJ_EEEEEC2ERKSU_.exit
  %25 = load ptr, ptr %6, align 8
  %.not.i.i3 = icmp eq ptr %25, null
  br i1 %.not.i.i3, label %_ZNSt8functionIFSt10shared_ptrIN10open_spiel8ObserverEERKNS1_4GameEN4absl7debian28optionalINS1_18IIGObservationTypeEEERKSt3mapINSt7__cxx1112basic_stringIcSt11char_traitsIcESaIcEEENS1_13GameParameterESt4lessISI_ESaISt4pairIKSI_SJ_EEEEED2Ev.exit, label %26

26:                                               ; preds = %24
  %27 = invoke noundef zeroext i1 %25(ptr noundef nonnull align 8 dereferenceable(32) %5, ptr noundef nonnull align 8 dereferenceable(32) %5, i32 noundef 3)
          to label %_ZNSt8functionIFSt10shared_ptrIN10open_spiel8ObserverEERKNS1_4GameEN4absl7debian28optionalINS1_18IIGObservationTypeEEERKSt3mapINSt7__cxx1112basic_stringIcSt11char_traitsIcESaIcEEENS1_13GameParameterESt4lessISI_ESaISt4pairIKSI_SJ_EEEEED2Ev.exit unwind label %28

28:                                               ; preds = %26
  %29 = landingpad { ptr, i32 }
          catch ptr null
  %30 = extractvalue { ptr, i32 } %29, 0
  call void @__clang_call_terminate(ptr %30) #27
  unreachable

_ZNSt8functionIFSt10shared_ptrIN10open_spiel8ObserverEERKNS1_4GameEN4absl7debian28optionalINS1_18IIGObservationTypeEEERKSt3mapINSt7__cxx1112basic_stringIcSt11char_traitsIcESaIcEEENS1_13GameParameterESt4lessISI_ESaISt4pairIKSI_SJ_EEEEED2Ev.exit: ; preds = %24, %26
  ret void

31:                                               ; preds = %_ZNSt8functionIFSt10shared_ptrIN10open_spiel8ObserverEERKNS1_4GameEN4absl7debian28optionalINS1_18IIGObservationTypeEEERKSt3mapINSt7__cxx1112basic_stringIcSt11char_traitsIcESaIcEEENS1_13GameParameterESt4lessISI_ESaISt4pairIKSI_SJ_EEEEEC2ERKSU_.exit
  %32 = landingpad { ptr, i32 }
          cleanup
  %33 = load ptr, ptr %6, align 8
  %.not.i.i5 = icmp eq ptr %33, null
  br i1 %.not.i.i5, label %common.resume, label %34

34:                                               ; preds = %31
  %35 = invoke noundef zeroext i1 %33(ptr noundef nonnull align 8 dereferenceable(32) %5, ptr noundef nonnull align 8 dereferenceable(32) %5, i32 noundef 3)
          to label %common.resume unwind label %36

36:                                               ; preds = %34
  %37 = landingpad { ptr, i32 }
          catch ptr null
  %38 = extractvalue { ptr, i32 } %37, 0
  call void @__clang_call_terminate(ptr %38) #27
  unreachable
}